
TWI_Aplication.elf:     file format elf32-avr

Sections:
Idx Name          Size      VMA       LMA       File off  Algn
  0 .data         00000000  00800100  00800100  000005a4  2**0
                  CONTENTS, ALLOC, LOAD, DATA
  1 .text         00000530  00000000  00000000  00000074  2**1
                  CONTENTS, ALLOC, LOAD, READONLY, CODE
  2 .bss          00000006  00800100  00800100  000005a4  2**0
                  ALLOC
  3 .comment      00000030  00000000  00000000  000005a4  2**0
                  CONTENTS, READONLY
  4 .note.gnu.avr.deviceinfo 00000040  00000000  00000000  000005d4  2**2
                  CONTENTS, READONLY
  5 .debug_aranges 00000078  00000000  00000000  00000614  2**0
                  CONTENTS, READONLY, DEBUGGING
  6 .debug_info   00000dd5  00000000  00000000  0000068c  2**0
                  CONTENTS, READONLY, DEBUGGING
  7 .debug_abbrev 0000076a  00000000  00000000  00001461  2**0
                  CONTENTS, READONLY, DEBUGGING
  8 .debug_line   000007b9  00000000  00000000  00001bcb  2**0
                  CONTENTS, READONLY, DEBUGGING
  9 .debug_frame  000000ec  00000000  00000000  00002384  2**2
                  CONTENTS, READONLY, DEBUGGING
 10 .debug_str    00000486  00000000  00000000  00002470  2**0
                  CONTENTS, READONLY, DEBUGGING
 11 .debug_loc    00000156  00000000  00000000  000028f6  2**0
                  CONTENTS, READONLY, DEBUGGING
 12 .debug_ranges 00000068  00000000  00000000  00002a4c  2**0
                  CONTENTS, READONLY, DEBUGGING

Disassembly of section .text:

00000000 <__vectors>:
   0:	0c 94 50 00 	jmp	0xa0	; 0xa0 <__ctors_end>
   4:	0c 94 62 00 	jmp	0xc4	; 0xc4 <__bad_interrupt>
   8:	0c 94 62 00 	jmp	0xc4	; 0xc4 <__bad_interrupt>
   c:	0c 94 62 00 	jmp	0xc4	; 0xc4 <__bad_interrupt>
  10:	0c 94 62 00 	jmp	0xc4	; 0xc4 <__bad_interrupt>
  14:	0c 94 62 00 	jmp	0xc4	; 0xc4 <__bad_interrupt>
  18:	0c 94 62 00 	jmp	0xc4	; 0xc4 <__bad_interrupt>
  1c:	0c 94 62 00 	jmp	0xc4	; 0xc4 <__bad_interrupt>
  20:	0c 94 62 00 	jmp	0xc4	; 0xc4 <__bad_interrupt>
  24:	0c 94 62 00 	jmp	0xc4	; 0xc4 <__bad_interrupt>
  28:	0c 94 62 00 	jmp	0xc4	; 0xc4 <__bad_interrupt>
  2c:	0c 94 62 00 	jmp	0xc4	; 0xc4 <__bad_interrupt>
  30:	0c 94 62 00 	jmp	0xc4	; 0xc4 <__bad_interrupt>
  34:	0c 94 62 00 	jmp	0xc4	; 0xc4 <__bad_interrupt>
  38:	0c 94 62 00 	jmp	0xc4	; 0xc4 <__bad_interrupt>
  3c:	0c 94 62 00 	jmp	0xc4	; 0xc4 <__bad_interrupt>
  40:	0c 94 62 00 	jmp	0xc4	; 0xc4 <__bad_interrupt>
  44:	0c 94 62 00 	jmp	0xc4	; 0xc4 <__bad_interrupt>
  48:	0c 94 62 00 	jmp	0xc4	; 0xc4 <__bad_interrupt>
  4c:	0c 94 62 00 	jmp	0xc4	; 0xc4 <__bad_interrupt>
  50:	0c 94 62 00 	jmp	0xc4	; 0xc4 <__bad_interrupt>
  54:	0c 94 62 00 	jmp	0xc4	; 0xc4 <__bad_interrupt>
  58:	0c 94 62 00 	jmp	0xc4	; 0xc4 <__bad_interrupt>
  5c:	0c 94 62 00 	jmp	0xc4	; 0xc4 <__bad_interrupt>
  60:	0c 94 64 00 	jmp	0xc8	; 0xc8 <__vector_24>
  64:	0c 94 62 00 	jmp	0xc4	; 0xc4 <__bad_interrupt>
  68:	a7 00       	.word	0x00a7	; ????
  6a:	b1 00       	.word	0x00b1	; ????
  6c:	bb 00       	.word	0x00bb	; ????
  6e:	c5 00       	.word	0x00c5	; ????
  70:	cf 00       	.word	0x00cf	; ????
  72:	d9 00       	.word	0x00d9	; ????
  74:	e3 00       	.word	0x00e3	; ????
  76:	ed 00       	.word	0x00ed	; ????
  78:	f7 00       	.word	0x00f7	; ????
  7a:	01 01       	movw	r0, r2
  7c:	0b 01       	movw	r0, r22
  7e:	15 01       	movw	r2, r10
  80:	1f 01       	movw	r2, r30
  82:	29 01       	movw	r4, r18
  84:	33 01       	movw	r6, r6
  86:	3d 01       	movw	r6, r26
  88:	47 01       	movw	r8, r14
  8a:	51 01       	movw	r10, r2
  8c:	5b 01       	movw	r10, r22
  8e:	65 01       	movw	r12, r10
  90:	6f 01       	movw	r12, r30
  92:	79 01       	movw	r14, r18
  94:	83 01       	movw	r16, r6
  96:	8d 01       	movw	r16, r26
  98:	97 01       	movw	r18, r14
  9a:	a1 01       	movw	r20, r2
  9c:	ab 01       	movw	r20, r22
  9e:	b5 01       	movw	r22, r10

000000a0 <__ctors_end>:
  a0:	11 24       	eor	r1, r1
  a2:	1f be       	out	0x3f, r1	; 63
  a4:	cf ef       	ldi	r28, 0xFF	; 255
  a6:	d8 e0       	ldi	r29, 0x08	; 8
  a8:	de bf       	out	0x3e, r29	; 62
  aa:	cd bf       	out	0x3d, r28	; 61

000000ac <__do_clear_bss>:
  ac:	21 e0       	ldi	r18, 0x01	; 1
  ae:	a0 e0       	ldi	r26, 0x00	; 0
  b0:	b1 e0       	ldi	r27, 0x01	; 1
  b2:	01 c0       	rjmp	.+2      	; 0xb6 <.do_clear_bss_start>

000000b4 <.do_clear_bss_loop>:
  b4:	1d 92       	st	X+, r1

000000b6 <.do_clear_bss_start>:
  b6:	a6 30       	cpi	r26, 0x06	; 6
  b8:	b2 07       	cpc	r27, r18
  ba:	e1 f7       	brne	.-8      	; 0xb4 <.do_clear_bss_loop>
  bc:	0e 94 61 02 	call	0x4c2	; 0x4c2 <main>
  c0:	0c 94 96 02 	jmp	0x52c	; 0x52c <_exit>

000000c4 <__bad_interrupt>:
  c4:	0c 94 00 00 	jmp	0	; 0x0 <__vectors>

000000c8 <__vector_24>:
			twi_Status=1;
			writeDisplay();
			if(comando==LAST_COMAND_RECEIVED){
				disply1306StopTWI(ATMEGA328P);
				comando=0;
				tarea++;
  c8:	1f 92       	push	r1
  ca:	0f 92       	push	r0
  cc:	0f b6       	in	r0, 0x3f	; 63
  ce:	0f 92       	push	r0
  d0:	11 24       	eor	r1, r1
  d2:	8f 93       	push	r24
  d4:	81 e0       	ldi	r24, 0x01	; 1
  d6:	80 93 04 01 	sts	0x0104, r24	; 0x800104 <flagInterrup>
  da:	80 91 b9 00 	lds	r24, 0x00B9	; 0x8000b9 <__TEXT_REGION_LENGTH__+0x7f80b9>
  de:	88 7f       	andi	r24, 0xF8	; 248
  e0:	80 93 05 01 	sts	0x0105, r24	; 0x800105 <twi_Status>
  e4:	8f 91       	pop	r24
  e6:	0f 90       	pop	r0
  e8:	0f be       	out	0x3f, r0	; 63
  ea:	0f 90       	pop	r0
  ec:	1f 90       	pop	r1
  ee:	18 95       	reti

000000f0 <initPorts>:
  f0:	80 e2       	ldi	r24, 0x20	; 32
  f2:	84 b9       	out	0x04, r24	; 4
  f4:	08 95       	ret

000000f6 <disply1306InitTWI>:
  f6:	80 ff       	sbrs	r24, 0
  f8:	0b c0       	rjmp	.+22     	; 0x110 <disply1306InitTWI+0x1a>
  fa:	88 e4       	ldi	r24, 0x48	; 72
  fc:	80 93 b8 00 	sts	0x00B8, r24	; 0x8000b8 <__TEXT_REGION_LENGTH__+0x7f80b8>
 100:	e9 eb       	ldi	r30, 0xB9	; 185
 102:	f0 e0       	ldi	r31, 0x00	; 0
 104:	80 81       	ld	r24, Z
 106:	8c 7f       	andi	r24, 0xFC	; 252
 108:	80 83       	st	Z, r24
 10a:	85 ea       	ldi	r24, 0xA5	; 165
 10c:	80 93 bc 00 	sts	0x00BC, r24	; 0x8000bc <__TEXT_REGION_LENGTH__+0x7f80bc>
 110:	08 95       	ret

00000112 <disply1306SlaveAddrsTWI>:
 112:	80 ff       	sbrs	r24, 0
 114:	06 c0       	rjmp	.+12     	; 0x122 <disply1306SlaveAddrsTWI+0x10>
 116:	88 e7       	ldi	r24, 0x78	; 120
 118:	80 93 bb 00 	sts	0x00BB, r24	; 0x8000bb <__TEXT_REGION_LENGTH__+0x7f80bb>
 11c:	85 e8       	ldi	r24, 0x85	; 133
 11e:	80 93 bc 00 	sts	0x00BC, r24	; 0x8000bc <__TEXT_REGION_LENGTH__+0x7f80bc>
 122:	08 95       	ret

00000124 <disply1306Data>:
 124:	80 ff       	sbrs	r24, 0
 126:	05 c0       	rjmp	.+10     	; 0x132 <disply1306Data+0xe>
 128:	60 93 bb 00 	sts	0x00BB, r22	; 0x8000bb <__TEXT_REGION_LENGTH__+0x7f80bb>
 12c:	85 e8       	ldi	r24, 0x85	; 133
 12e:	80 93 bc 00 	sts	0x00BC, r24	; 0x8000bc <__TEXT_REGION_LENGTH__+0x7f80bc>
 132:	08 95       	ret

00000134 <disply1306Settings>:
 134:	e0 91 03 01 	lds	r30, 0x0103	; 0x800103 <comando>
 138:	8e 2f       	mov	r24, r30
 13a:	90 e0       	ldi	r25, 0x00	; 0
 13c:	8c 31       	cpi	r24, 0x1C	; 28
 13e:	91 05       	cpc	r25, r1
 140:	08 f0       	brcs	.+2      	; 0x144 <disply1306Settings+0x10>
 142:	16 c1       	rjmp	.+556    	; 0x370 <disply1306Settings+0x23c>
 144:	fc 01       	movw	r30, r24
 146:	ec 5c       	subi	r30, 0xCC	; 204
 148:	ff 4f       	sbci	r31, 0xFF	; 255
 14a:	0c 94 90 02 	jmp	0x520	; 0x520 <__tablejump2__>
 14e:	60 e0       	ldi	r22, 0x00	; 0
 150:	81 e0       	ldi	r24, 0x01	; 1
 152:	0e 94 92 00 	call	0x124	; 0x124 <disply1306Data>
 156:	80 91 03 01 	lds	r24, 0x0103	; 0x800103 <comando>
 15a:	8f 5f       	subi	r24, 0xFF	; 255
 15c:	80 93 03 01 	sts	0x0103, r24	; 0x800103 <comando>
 160:	08 95       	ret
 162:	6e ea       	ldi	r22, 0xAE	; 174
 164:	81 e0       	ldi	r24, 0x01	; 1
 166:	0e 94 92 00 	call	0x124	; 0x124 <disply1306Data>
 16a:	80 91 03 01 	lds	r24, 0x0103	; 0x800103 <comando>
 16e:	8f 5f       	subi	r24, 0xFF	; 255
 170:	80 93 03 01 	sts	0x0103, r24	; 0x800103 <comando>
 174:	08 95       	ret
 176:	65 ed       	ldi	r22, 0xD5	; 213
 178:	81 e0       	ldi	r24, 0x01	; 1
 17a:	0e 94 92 00 	call	0x124	; 0x124 <disply1306Data>
 17e:	80 91 03 01 	lds	r24, 0x0103	; 0x800103 <comando>
 182:	8f 5f       	subi	r24, 0xFF	; 255
 184:	80 93 03 01 	sts	0x0103, r24	; 0x800103 <comando>
 188:	08 95       	ret
 18a:	60 e8       	ldi	r22, 0x80	; 128
 18c:	81 e0       	ldi	r24, 0x01	; 1
 18e:	0e 94 92 00 	call	0x124	; 0x124 <disply1306Data>
 192:	80 91 03 01 	lds	r24, 0x0103	; 0x800103 <comando>
 196:	8f 5f       	subi	r24, 0xFF	; 255
 198:	80 93 03 01 	sts	0x0103, r24	; 0x800103 <comando>
 19c:	08 95       	ret
 19e:	68 ea       	ldi	r22, 0xA8	; 168
 1a0:	81 e0       	ldi	r24, 0x01	; 1
 1a2:	0e 94 92 00 	call	0x124	; 0x124 <disply1306Data>
 1a6:	80 91 03 01 	lds	r24, 0x0103	; 0x800103 <comando>
 1aa:	8f 5f       	subi	r24, 0xFF	; 255
 1ac:	80 93 03 01 	sts	0x0103, r24	; 0x800103 <comando>
 1b0:	08 95       	ret
 1b2:	6f e3       	ldi	r22, 0x3F	; 63
 1b4:	81 e0       	ldi	r24, 0x01	; 1
 1b6:	0e 94 92 00 	call	0x124	; 0x124 <disply1306Data>
 1ba:	80 91 03 01 	lds	r24, 0x0103	; 0x800103 <comando>
 1be:	8f 5f       	subi	r24, 0xFF	; 255
 1c0:	80 93 03 01 	sts	0x0103, r24	; 0x800103 <comando>
 1c4:	08 95       	ret
 1c6:	63 ed       	ldi	r22, 0xD3	; 211
 1c8:	81 e0       	ldi	r24, 0x01	; 1
 1ca:	0e 94 92 00 	call	0x124	; 0x124 <disply1306Data>
 1ce:	80 91 03 01 	lds	r24, 0x0103	; 0x800103 <comando>
 1d2:	8f 5f       	subi	r24, 0xFF	; 255
 1d4:	80 93 03 01 	sts	0x0103, r24	; 0x800103 <comando>
 1d8:	08 95       	ret
 1da:	60 e0       	ldi	r22, 0x00	; 0
 1dc:	81 e0       	ldi	r24, 0x01	; 1
 1de:	0e 94 92 00 	call	0x124	; 0x124 <disply1306Data>
 1e2:	80 91 03 01 	lds	r24, 0x0103	; 0x800103 <comando>
 1e6:	8f 5f       	subi	r24, 0xFF	; 255
 1e8:	80 93 03 01 	sts	0x0103, r24	; 0x800103 <comando>
 1ec:	08 95       	ret
 1ee:	60 e4       	ldi	r22, 0x40	; 64
 1f0:	81 e0       	ldi	r24, 0x01	; 1
 1f2:	0e 94 92 00 	call	0x124	; 0x124 <disply1306Data>
 1f6:	80 91 03 01 	lds	r24, 0x0103	; 0x800103 <comando>
 1fa:	8f 5f       	subi	r24, 0xFF	; 255
 1fc:	80 93 03 01 	sts	0x0103, r24	; 0x800103 <comando>
 200:	08 95       	ret
 202:	6d e8       	ldi	r22, 0x8D	; 141
 204:	81 e0       	ldi	r24, 0x01	; 1
 206:	0e 94 92 00 	call	0x124	; 0x124 <disply1306Data>
 20a:	80 91 03 01 	lds	r24, 0x0103	; 0x800103 <comando>
 20e:	8f 5f       	subi	r24, 0xFF	; 255
 210:	80 93 03 01 	sts	0x0103, r24	; 0x800103 <comando>
 214:	08 95       	ret
 216:	64 e1       	ldi	r22, 0x14	; 20
 218:	81 e0       	ldi	r24, 0x01	; 1
 21a:	0e 94 92 00 	call	0x124	; 0x124 <disply1306Data>
 21e:	80 91 03 01 	lds	r24, 0x0103	; 0x800103 <comando>
 222:	8f 5f       	subi	r24, 0xFF	; 255
 224:	80 93 03 01 	sts	0x0103, r24	; 0x800103 <comando>
 228:	08 95       	ret
 22a:	61 ea       	ldi	r22, 0xA1	; 161
 22c:	81 e0       	ldi	r24, 0x01	; 1
 22e:	0e 94 92 00 	call	0x124	; 0x124 <disply1306Data>
 232:	80 91 03 01 	lds	r24, 0x0103	; 0x800103 <comando>
 236:	8f 5f       	subi	r24, 0xFF	; 255
 238:	80 93 03 01 	sts	0x0103, r24	; 0x800103 <comando>
 23c:	08 95       	ret
 23e:	68 ec       	ldi	r22, 0xC8	; 200
 240:	81 e0       	ldi	r24, 0x01	; 1
 242:	0e 94 92 00 	call	0x124	; 0x124 <disply1306Data>
 246:	80 91 03 01 	lds	r24, 0x0103	; 0x800103 <comando>
 24a:	8f 5f       	subi	r24, 0xFF	; 255
 24c:	80 93 03 01 	sts	0x0103, r24	; 0x800103 <comando>
 250:	08 95       	ret
 252:	6a ed       	ldi	r22, 0xDA	; 218
 254:	81 e0       	ldi	r24, 0x01	; 1
 256:	0e 94 92 00 	call	0x124	; 0x124 <disply1306Data>
 25a:	80 91 03 01 	lds	r24, 0x0103	; 0x800103 <comando>
 25e:	8f 5f       	subi	r24, 0xFF	; 255
 260:	80 93 03 01 	sts	0x0103, r24	; 0x800103 <comando>
 264:	08 95       	ret
 266:	62 e1       	ldi	r22, 0x12	; 18
 268:	81 e0       	ldi	r24, 0x01	; 1
 26a:	0e 94 92 00 	call	0x124	; 0x124 <disply1306Data>
 26e:	80 91 03 01 	lds	r24, 0x0103	; 0x800103 <comando>
 272:	8f 5f       	subi	r24, 0xFF	; 255
 274:	80 93 03 01 	sts	0x0103, r24	; 0x800103 <comando>
 278:	08 95       	ret
 27a:	61 e8       	ldi	r22, 0x81	; 129
 27c:	81 e0       	ldi	r24, 0x01	; 1
 27e:	0e 94 92 00 	call	0x124	; 0x124 <disply1306Data>
 282:	80 91 03 01 	lds	r24, 0x0103	; 0x800103 <comando>
 286:	8f 5f       	subi	r24, 0xFF	; 255
 288:	80 93 03 01 	sts	0x0103, r24	; 0x800103 <comando>
 28c:	08 95       	ret
 28e:	6f e9       	ldi	r22, 0x9F	; 159
 290:	81 e0       	ldi	r24, 0x01	; 1
 292:	0e 94 92 00 	call	0x124	; 0x124 <disply1306Data>
 296:	80 91 03 01 	lds	r24, 0x0103	; 0x800103 <comando>
 29a:	8f 5f       	subi	r24, 0xFF	; 255
 29c:	80 93 03 01 	sts	0x0103, r24	; 0x800103 <comando>
 2a0:	08 95       	ret
 2a2:	60 e2       	ldi	r22, 0x20	; 32
 2a4:	81 e0       	ldi	r24, 0x01	; 1
 2a6:	0e 94 92 00 	call	0x124	; 0x124 <disply1306Data>
 2aa:	80 91 03 01 	lds	r24, 0x0103	; 0x800103 <comando>
 2ae:	8f 5f       	subi	r24, 0xFF	; 255
 2b0:	80 93 03 01 	sts	0x0103, r24	; 0x800103 <comando>
 2b4:	08 95       	ret
 2b6:	62 e0       	ldi	r22, 0x02	; 2
 2b8:	81 e0       	ldi	r24, 0x01	; 1
 2ba:	0e 94 92 00 	call	0x124	; 0x124 <disply1306Data>
 2be:	80 91 03 01 	lds	r24, 0x0103	; 0x800103 <comando>
 2c2:	8f 5f       	subi	r24, 0xFF	; 255
 2c4:	80 93 03 01 	sts	0x0103, r24	; 0x800103 <comando>
 2c8:	08 95       	ret
 2ca:	6e e2       	ldi	r22, 0x2E	; 46
 2cc:	81 e0       	ldi	r24, 0x01	; 1
 2ce:	0e 94 92 00 	call	0x124	; 0x124 <disply1306Data>
 2d2:	80 91 03 01 	lds	r24, 0x0103	; 0x800103 <comando>
 2d6:	8f 5f       	subi	r24, 0xFF	; 255
 2d8:	80 93 03 01 	sts	0x0103, r24	; 0x800103 <comando>
 2dc:	08 95       	ret
 2de:	69 ed       	ldi	r22, 0xD9	; 217
 2e0:	81 e0       	ldi	r24, 0x01	; 1
 2e2:	0e 94 92 00 	call	0x124	; 0x124 <disply1306Data>
 2e6:	80 91 03 01 	lds	r24, 0x0103	; 0x800103 <comando>
 2ea:	8f 5f       	subi	r24, 0xFF	; 255
 2ec:	80 93 03 01 	sts	0x0103, r24	; 0x800103 <comando>
 2f0:	08 95       	ret
 2f2:	62 e2       	ldi	r22, 0x22	; 34
 2f4:	81 e0       	ldi	r24, 0x01	; 1
 2f6:	0e 94 92 00 	call	0x124	; 0x124 <disply1306Data>
 2fa:	80 91 03 01 	lds	r24, 0x0103	; 0x800103 <comando>
 2fe:	8f 5f       	subi	r24, 0xFF	; 255
 300:	80 93 03 01 	sts	0x0103, r24	; 0x800103 <comando>
 304:	08 95       	ret
 306:	6b ed       	ldi	r22, 0xDB	; 219
 308:	81 e0       	ldi	r24, 0x01	; 1
 30a:	0e 94 92 00 	call	0x124	; 0x124 <disply1306Data>
 30e:	80 91 03 01 	lds	r24, 0x0103	; 0x800103 <comando>
 312:	8f 5f       	subi	r24, 0xFF	; 255
 314:	80 93 03 01 	sts	0x0103, r24	; 0x800103 <comando>
 318:	08 95       	ret
 31a:	60 e4       	ldi	r22, 0x40	; 64
 31c:	81 e0       	ldi	r24, 0x01	; 1
 31e:	0e 94 92 00 	call	0x124	; 0x124 <disply1306Data>
 322:	80 91 03 01 	lds	r24, 0x0103	; 0x800103 <comando>
 326:	8f 5f       	subi	r24, 0xFF	; 255
 328:	80 93 03 01 	sts	0x0103, r24	; 0x800103 <comando>
 32c:	08 95       	ret
 32e:	64 ea       	ldi	r22, 0xA4	; 164
 330:	81 e0       	ldi	r24, 0x01	; 1
 332:	0e 94 92 00 	call	0x124	; 0x124 <disply1306Data>
 336:	80 91 03 01 	lds	r24, 0x0103	; 0x800103 <comando>
 33a:	8f 5f       	subi	r24, 0xFF	; 255
 33c:	80 93 03 01 	sts	0x0103, r24	; 0x800103 <comando>
 340:	08 95       	ret
 342:	67 ea       	ldi	r22, 0xA7	; 167
 344:	81 e0       	ldi	r24, 0x01	; 1
 346:	0e 94 92 00 	call	0x124	; 0x124 <disply1306Data>
 34a:	80 91 03 01 	lds	r24, 0x0103	; 0x800103 <comando>
 34e:	8f 5f       	subi	r24, 0xFF	; 255
 350:	80 93 03 01 	sts	0x0103, r24	; 0x800103 <comando>
 354:	08 95       	ret
 356:	6f ea       	ldi	r22, 0xAF	; 175
 358:	81 e0       	ldi	r24, 0x01	; 1
 35a:	0e 94 92 00 	call	0x124	; 0x124 <disply1306Data>
 35e:	80 91 03 01 	lds	r24, 0x0103	; 0x800103 <comando>
 362:	8f 5f       	subi	r24, 0xFF	; 255
 364:	80 93 03 01 	sts	0x0103, r24	; 0x800103 <comando>
 368:	08 95       	ret
 36a:	80 ef       	ldi	r24, 0xF0	; 240
 36c:	80 93 03 01 	sts	0x0103, r24	; 0x800103 <comando>
 370:	08 95       	ret

00000372 <disply1306StopTWI>:
 372:	80 ff       	sbrs	r24, 0
 374:	03 c0       	rjmp	.+6      	; 0x37c <disply1306StopTWI+0xa>
 376:	84 e9       	ldi	r24, 0x94	; 148
 378:	80 93 bc 00 	sts	0x00BC, r24	; 0x8000bc <__TEXT_REGION_LENGTH__+0x7f80bc>
 37c:	08 95       	ret

0000037e <disply1306DefaultInit>:
 37e:	80 91 05 01 	lds	r24, 0x0105	; 0x800105 <twi_Status>
 382:	88 30       	cpi	r24, 0x08	; 8
 384:	79 f0       	breq	.+30     	; 0x3a4 <disply1306DefaultInit+0x26>
 386:	18 f4       	brcc	.+6      	; 0x38e <disply1306DefaultInit+0x10>
 388:	88 23       	and	r24, r24
 38a:	31 f0       	breq	.+12     	; 0x398 <disply1306DefaultInit+0x1a>
 38c:	08 95       	ret
 38e:	88 31       	cpi	r24, 0x18	; 24
 390:	79 f0       	breq	.+30     	; 0x3b0 <disply1306DefaultInit+0x32>
 392:	88 32       	cpi	r24, 0x28	; 40
 394:	69 f0       	breq	.+26     	; 0x3b0 <disply1306DefaultInit+0x32>
 396:	08 95       	ret
 398:	81 e0       	ldi	r24, 0x01	; 1
 39a:	80 93 05 01 	sts	0x0105, r24	; 0x800105 <twi_Status>
 39e:	0e 94 7b 00 	call	0xf6	; 0xf6 <disply1306InitTWI>
 3a2:	08 95       	ret
 3a4:	81 e0       	ldi	r24, 0x01	; 1
 3a6:	80 93 05 01 	sts	0x0105, r24	; 0x800105 <twi_Status>
 3aa:	0e 94 89 00 	call	0x112	; 0x112 <disply1306SlaveAddrsTWI>
 3ae:	08 95       	ret
 3b0:	81 e0       	ldi	r24, 0x01	; 1
 3b2:	80 93 05 01 	sts	0x0105, r24	; 0x800105 <twi_Status>
 3b6:	0e 94 9a 00 	call	0x134	; 0x134 <disply1306Settings>
 3ba:	80 91 03 01 	lds	r24, 0x0103	; 0x800103 <comando>
 3be:	80 3f       	cpi	r24, 0xF0	; 240
 3c0:	79 f4       	brne	.+30     	; 0x3e0 <disply1306DefaultInit+0x62>
 3c2:	81 e0       	ldi	r24, 0x01	; 1
 3c4:	0e 94 b9 01 	call	0x372	; 0x372 <disply1306StopTWI>
 3c8:	10 92 03 01 	sts	0x0103, r1	; 0x800103 <comando>
 3cc:	80 91 02 01 	lds	r24, 0x0102	; 0x800102 <tarea>
 3d0:	8f 5f       	subi	r24, 0xFF	; 255
 3d2:	80 93 02 01 	sts	0x0102, r24	; 0x800102 <tarea>
 3d6:	81 e0       	ldi	r24, 0x01	; 1
 3d8:	80 93 04 01 	sts	0x0104, r24	; 0x800104 <flagInterrup>
 3dc:	10 92 05 01 	sts	0x0105, r1	; 0x800105 <twi_Status>
 3e0:	08 95       	ret

000003e2 <cleanPage>:
			}
			break;
	}
}

void cleanPage(uint8_t page){
 3e2:	cf 93       	push	r28
 3e4:	c8 2f       	mov	r28, r24
	switch(twi_Status){
 3e6:	80 91 05 01 	lds	r24, 0x0105	; 0x800105 <twi_Status>
 3ea:	88 30       	cpi	r24, 0x08	; 8
 3ec:	79 f0       	breq	.+30     	; 0x40c <__EEPROM_REGION_LENGTH__+0xc>
 3ee:	18 f4       	brcc	.+6      	; 0x3f6 <cleanPage+0x14>
 3f0:	88 23       	and	r24, r24
 3f2:	31 f0       	breq	.+12     	; 0x400 <__EEPROM_REGION_LENGTH__>
 3f4:	16 c0       	rjmp	.+44     	; 0x422 <__EEPROM_REGION_LENGTH__+0x22>
 3f6:	88 31       	cpi	r24, 0x18	; 24
 3f8:	79 f0       	breq	.+30     	; 0x418 <__EEPROM_REGION_LENGTH__+0x18>
 3fa:	88 32       	cpi	r24, 0x28	; 40
 3fc:	69 f0       	breq	.+26     	; 0x418 <__EEPROM_REGION_LENGTH__+0x18>
 3fe:	11 c0       	rjmp	.+34     	; 0x422 <__EEPROM_REGION_LENGTH__+0x22>
		case 0:
			twi_Status=1;
 400:	81 e0       	ldi	r24, 0x01	; 1
 402:	80 93 05 01 	sts	0x0105, r24	; 0x800105 <twi_Status>
			disply1306InitTWI(ATMEGA328P);
 406:	0e 94 7b 00 	call	0xf6	; 0xf6 <disply1306InitTWI>
			break;
 40a:	0b c0       	rjmp	.+22     	; 0x422 <__EEPROM_REGION_LENGTH__+0x22>
		case TWI_STARTED:
			twi_Status=1;
 40c:	81 e0       	ldi	r24, 0x01	; 1
 40e:	80 93 05 01 	sts	0x0105, r24	; 0x800105 <twi_Status>
			disply1306SlaveAddrsTWI(ATMEGA328P);
 412:	0e 94 89 00 	call	0x112	; 0x112 <disply1306SlaveAddrsTWI>
			break;
 416:	05 c0       	rjmp	.+10     	; 0x422 <__EEPROM_REGION_LENGTH__+0x22>
		case SLA_W_SENT: case DATA_RECEIVED: 
			twi_Status=1;
 418:	81 e0       	ldi	r24, 0x01	; 1
 41a:	80 93 05 01 	sts	0x0105, r24	; 0x800105 <twi_Status>
			clean=1;
 41e:	80 93 00 01 	sts	0x0100, r24	; 0x800100 <__DATA_REGION_ORIGIN__>
			break;
	}
	if(clean){
 422:	80 91 00 01 	lds	r24, 0x0100	; 0x800100 <__DATA_REGION_ORIGIN__>
 426:	88 23       	and	r24, r24
 428:	09 f4       	brne	.+2      	; 0x42c <__EEPROM_REGION_LENGTH__+0x2c>
 42a:	49 c0       	rjmp	.+146    	; 0x4be <__EEPROM_REGION_LENGTH__+0xbe>
		clean=0;
 42c:	10 92 00 01 	sts	0x0100, r1	; 0x800100 <__DATA_REGION_ORIGIN__>
		switch(comando){
 430:	80 91 03 01 	lds	r24, 0x0103	; 0x800103 <comando>
 434:	81 30       	cpi	r24, 0x01	; 1
 436:	81 f0       	breq	.+32     	; 0x458 <__EEPROM_REGION_LENGTH__+0x58>
 438:	28 f0       	brcs	.+10     	; 0x444 <__EEPROM_REGION_LENGTH__+0x44>
 43a:	82 30       	cpi	r24, 0x02	; 2
 43c:	b9 f0       	breq	.+46     	; 0x46c <__EEPROM_REGION_LENGTH__+0x6c>
 43e:	83 30       	cpi	r24, 0x03	; 3
 440:	f9 f0       	breq	.+62     	; 0x480 <__EEPROM_REGION_LENGTH__+0x80>
 442:	3d c0       	rjmp	.+122    	; 0x4be <__EEPROM_REGION_LENGTH__+0xbe>
			case 0:
				disply1306Data(ATMEGA328P,0x80);
 444:	60 e8       	ldi	r22, 0x80	; 128
 446:	81 e0       	ldi	r24, 0x01	; 1
 448:	0e 94 92 00 	call	0x124	; 0x124 <disply1306Data>
				comando++;
 44c:	80 91 03 01 	lds	r24, 0x0103	; 0x800103 <comando>
 450:	8f 5f       	subi	r24, 0xFF	; 255
 452:	80 93 03 01 	sts	0x0103, r24	; 0x800103 <comando>
				break;	
 456:	33 c0       	rjmp	.+102    	; 0x4be <__EEPROM_REGION_LENGTH__+0xbe>
			case 1:
				disply1306Data(ATMEGA328P,page);
 458:	6c 2f       	mov	r22, r28
 45a:	81 e0       	ldi	r24, 0x01	; 1
 45c:	0e 94 92 00 	call	0x124	; 0x124 <disply1306Data>
				comando++;
 460:	80 91 03 01 	lds	r24, 0x0103	; 0x800103 <comando>
 464:	8f 5f       	subi	r24, 0xFF	; 255
 466:	80 93 03 01 	sts	0x0103, r24	; 0x800103 <comando>
				break;
 46a:	29 c0       	rjmp	.+82     	; 0x4be <__EEPROM_REGION_LENGTH__+0xbe>
			case 2:
				disply1306Data(ATMEGA328P,0x40);
 46c:	60 e4       	ldi	r22, 0x40	; 64
 46e:	81 e0       	ldi	r24, 0x01	; 1
 470:	0e 94 92 00 	call	0x124	; 0x124 <disply1306Data>
				comando++;
 474:	80 91 03 01 	lds	r24, 0x0103	; 0x800103 <comando>
 478:	8f 5f       	subi	r24, 0xFF	; 255
 47a:	80 93 03 01 	sts	0x0103, r24	; 0x800103 <comando>
				break;
 47e:	1f c0       	rjmp	.+62     	; 0x4be <__EEPROM_REGION_LENGTH__+0xbe>
			case 3:
				if(i<128){
 480:	80 91 01 01 	lds	r24, 0x0101	; 0x800101 <i>
 484:	88 23       	and	r24, r24
 486:	54 f0       	brlt	.+20     	; 0x49c <__EEPROM_REGION_LENGTH__+0x9c>
					disply1306Data(ATMEGA328P,0x00);
 488:	60 e0       	ldi	r22, 0x00	; 0
 48a:	81 e0       	ldi	r24, 0x01	; 1
 48c:	0e 94 92 00 	call	0x124	; 0x124 <disply1306Data>
					i++;
 490:	80 91 01 01 	lds	r24, 0x0101	; 0x800101 <i>
 494:	8f 5f       	subi	r24, 0xFF	; 255
 496:	80 93 01 01 	sts	0x0101, r24	; 0x800101 <i>
 49a:	11 c0       	rjmp	.+34     	; 0x4be <__EEPROM_REGION_LENGTH__+0xbe>
				}
				else{
					i=0;
 49c:	10 92 01 01 	sts	0x0101, r1	; 0x800101 <i>
					disply1306StopTWI(ATMEGA328P);
 4a0:	81 e0       	ldi	r24, 0x01	; 1
 4a2:	0e 94 b9 01 	call	0x372	; 0x372 <disply1306StopTWI>
					flagInterrup=1;
 4a6:	81 e0       	ldi	r24, 0x01	; 1
 4a8:	80 93 04 01 	sts	0x0104, r24	; 0x800104 <flagInterrup>
					comando=0;
 4ac:	10 92 03 01 	sts	0x0103, r1	; 0x800103 <comando>
					tarea++;
 4b0:	80 91 02 01 	lds	r24, 0x0102	; 0x800102 <tarea>
 4b4:	8f 5f       	subi	r24, 0xFF	; 255
 4b6:	80 93 02 01 	sts	0x0102, r24	; 0x800102 <tarea>
					twi_Status=0;
 4ba:	10 92 05 01 	sts	0x0105, r1	; 0x800105 <twi_Status>
				}
				break;
		}
	}
}
 4be:	cf 91       	pop	r28
 4c0:	08 95       	ret

000004c2 <main>:



int main(void)
{
	cli();
 4c2:	f8 94       	cli
	initPorts();
 4c4:	0e 94 78 00 	call	0xf0	; 0xf0 <initPorts>
	sei();
 4c8:	78 94       	sei
	#else
		//round up by default
		__ticks_dc = (uint32_t)(ceil(fabs(__tmp)));
	#endif

	__builtin_avr_delay_cycles(__ticks_dc);
 4ca:	2f ef       	ldi	r18, 0xFF	; 255
 4cc:	83 ed       	ldi	r24, 0xD3	; 211
 4ce:	90 e3       	ldi	r25, 0x30	; 48
 4d0:	21 50       	subi	r18, 0x01	; 1
 4d2:	80 40       	sbci	r24, 0x00	; 0
 4d4:	90 40       	sbci	r25, 0x00	; 0
 4d6:	e1 f7       	brne	.-8      	; 0x4d0 <main+0xe>
 4d8:	00 c0       	rjmp	.+0      	; 0x4da <main+0x18>
 4da:	00 00       	nop
	_delay_ms(1000);
	flagInterrup=1;
 4dc:	81 e0       	ldi	r24, 0x01	; 1
 4de:	80 93 04 01 	sts	0x0104, r24	; 0x800104 <flagInterrup>
    while (1) 
    {
		if(flagInterrup){
 4e2:	80 91 04 01 	lds	r24, 0x0104	; 0x800104 <flagInterrup>
 4e6:	88 23       	and	r24, r24
 4e8:	e1 f3       	breq	.-8      	; 0x4e2 <main+0x20>
			flagInterrup=0;
 4ea:	10 92 04 01 	sts	0x0104, r1	; 0x800104 <flagInterrup>
			switch(tarea){
 4ee:	80 91 02 01 	lds	r24, 0x0102	; 0x800102 <tarea>
 4f2:	81 30       	cpi	r24, 0x01	; 1
 4f4:	49 f0       	breq	.+18     	; 0x508 <main+0x46>
 4f6:	28 f0       	brcs	.+10     	; 0x502 <main+0x40>
 4f8:	82 30       	cpi	r24, 0x02	; 2
 4fa:	51 f0       	breq	.+20     	; 0x510 <main+0x4e>
 4fc:	83 30       	cpi	r24, 0x03	; 3
 4fe:	61 f0       	breq	.+24     	; 0x518 <main+0x56>
 500:	f0 cf       	rjmp	.-32     	; 0x4e2 <main+0x20>
				case 0:
					disply1306DefaultInit();
 502:	0e 94 bf 01 	call	0x37e	; 0x37e <disply1306DefaultInit>
					break;
 506:	ed cf       	rjmp	.-38     	; 0x4e2 <main+0x20>
				case 1:
					cleanPage(0xB4);
 508:	84 eb       	ldi	r24, 0xB4	; 180
 50a:	0e 94 f1 01 	call	0x3e2	; 0x3e2 <cleanPage>
					break;
 50e:	e9 cf       	rjmp	.-46     	; 0x4e2 <main+0x20>
				case 2:
					cleanPage(0xB7);
 510:	87 eb       	ldi	r24, 0xB7	; 183
 512:	0e 94 f1 01 	call	0x3e2	; 0x3e2 <cleanPage>
					break;
 516:	e5 cf       	rjmp	.-54     	; 0x4e2 <main+0x20>
				case 3:
					cleanPage(0xB0);
 518:	80 eb       	ldi	r24, 0xB0	; 176
 51a:	0e 94 f1 01 	call	0x3e2	; 0x3e2 <cleanPage>
					break;
 51e:	e1 cf       	rjmp	.-62     	; 0x4e2 <main+0x20>

00000520 <__tablejump2__>:
 520:	ee 0f       	add	r30, r30
 522:	ff 1f       	adc	r31, r31
 524:	05 90       	lpm	r0, Z+
 526:	f4 91       	lpm	r31, Z
 528:	e0 2d       	mov	r30, r0
 52a:	09 94       	ijmp

0000052c <_exit>:
 52c:	f8 94       	cli

0000052e <__stop_program>:
 52e:	ff cf       	rjmp	.-2      	; 0x52e <__stop_program>
